; ModuleID = '21/115.c'
source_filename = "21/115.c"
target datalayout = "e-m:e-p270:32:32-p271:32:32-p272:64:64-i64:64-f80:128-n8:16:32:64-S128"
target triple = "x86_64-pc-linux-gnu"

@sum = dso_local global i32 0, align 4
@max = dso_local global double 0.000000e+00, align 8
@n = common dso_local global i32 0, align 4
@ave = common dso_local global double 0.000000e+00, align 8
@a = common dso_local global [100 x i32] zeroinitializer, align 16
@b = common dso_local global [100 x i32] zeroinitializer, align 16
@.str = private unnamed_addr constant [5 x i8] c"%d%c\00", align 1
@.str.1 = private unnamed_addr constant [3 x i8] c"%d\00", align 1

; Function Attrs: noinline nounwind uwtable
define dso_local void @bubble(i32* %0, i32 %1) #0 {
  %3 = alloca i32*, align 8
  %4 = alloca i32, align 4
  %5 = alloca i32, align 4
  %6 = alloca i32, align 4
  %7 = alloca i32, align 4
  store i32* %0, i32** %3, align 8
  store i32 %1, i32* %4, align 4
  store i32 1, i32* %5, align 4
  br label %8

8:                                                ; preds = %59, %2
  %9 = load i32, i32* %5, align 4
  %10 = load i32, i32* %4, align 4
  %11 = icmp slt i32 %9, %10
  br i1 %11, label %12, label %62

12:                                               ; preds = %8
  store i32 0, i32* %6, align 4
  br label %13

13:                                               ; preds = %55, %12
  %14 = load i32, i32* %6, align 4
  %15 = load i32, i32* %4, align 4
  %16 = load i32, i32* %5, align 4
  %17 = sub nsw i32 %15, %16
  %18 = icmp slt i32 %14, %17
  br i1 %18, label %19, label %58

19:                                               ; preds = %13
  %20 = load i32*, i32** %3, align 8
  %21 = load i32, i32* %6, align 4
  %22 = sext i32 %21 to i64
  %23 = getelementptr inbounds i32, i32* %20, i64 %22
  %24 = load i32, i32* %23, align 4
  %25 = load i32*, i32** %3, align 8
  %26 = load i32, i32* %6, align 4
  %27 = add nsw i32 %26, 1
  %28 = sext i32 %27 to i64
  %29 = getelementptr inbounds i32, i32* %25, i64 %28
  %30 = load i32, i32* %29, align 4
  %31 = icmp sgt i32 %24, %30
  br i1 %31, label %32, label %54

32:                                               ; preds = %19
  %33 = load i32*, i32** %3, align 8
  %34 = load i32, i32* %6, align 4
  %35 = sext i32 %34 to i64
  %36 = getelementptr inbounds i32, i32* %33, i64 %35
  %37 = load i32, i32* %36, align 4
  store i32 %37, i32* %7, align 4
  %38 = load i32*, i32** %3, align 8
  %39 = load i32, i32* %6, align 4
  %40 = add nsw i32 %39, 1
  %41 = sext i32 %40 to i64
  %42 = getelementptr inbounds i32, i32* %38, i64 %41
  %43 = load i32, i32* %42, align 4
  %44 = load i32*, i32** %3, align 8
  %45 = load i32, i32* %6, align 4
  %46 = sext i32 %45 to i64
  %47 = getelementptr inbounds i32, i32* %44, i64 %46
  store i32 %43, i32* %47, align 4
  %48 = load i32, i32* %7, align 4
  %49 = load i32*, i32** %3, align 8
  %50 = load i32, i32* %6, align 4
  %51 = add nsw i32 %50, 1
  %52 = sext i32 %51 to i64
  %53 = getelementptr inbounds i32, i32* %49, i64 %52
  store i32 %48, i32* %53, align 4
  br label %54

54:                                               ; preds = %32, %19
  br label %55

55:                                               ; preds = %54
  %56 = load i32, i32* %6, align 4
  %57 = add nsw i32 %56, 1
  store i32 %57, i32* %6, align 4
  br label %13

58:                                               ; preds = %13
  br label %59

59:                                               ; preds = %58
  %60 = load i32, i32* %5, align 4
  %61 = add nsw i32 %60, 1
  store i32 %61, i32* %5, align 4
  br label %8

62:                                               ; preds = %8
  ret void
}

; Function Attrs: noinline nounwind uwtable
define dso_local void @fuc() #0 {
  %1 = alloca i32, align 4
  %2 = alloca i32, align 4
  store i32 0, i32* %2, align 4
  %3 = load i32, i32* @sum, align 4
  %4 = sitofp i32 %3 to double
  %5 = load i32, i32* @n, align 4
  %6 = sitofp i32 %5 to double
  %7 = fdiv double %4, %6
  store double %7, double* @ave, align 8
  store i32 0, i32* %1, align 4
  br label %8

8:                                                ; preds = %36, %0
  %9 = load i32, i32* %1, align 4
  %10 = load i32, i32* @n, align 4
  %11 = icmp slt i32 %9, %10
  br i1 %11, label %12, label %39

12:                                               ; preds = %8
  %13 = load double, double* @ave, align 8
  %14 = load i32, i32* %1, align 4
  %15 = sext i32 %14 to i64
  %16 = getelementptr inbounds [100 x i32], [100 x i32]* @a, i64 0, i64 %15
  %17 = load i32, i32* %16, align 4
  %18 = sitofp i32 %17 to double
  %19 = fsub double %13, %18
  %20 = call double @llvm.fabs.f64(double %19)
  %21 = load double, double* @max, align 8
  %22 = fcmp ogt double %20, %21
  br i1 %22, label %23, label %32

23:                                               ; preds = %12
  %24 = load double, double* @ave, align 8
  %25 = load i32, i32* %1, align 4
  %26 = sext i32 %25 to i64
  %27 = getelementptr inbounds [100 x i32], [100 x i32]* @a, i64 0, i64 %26
  %28 = load i32, i32* %27, align 4
  %29 = sitofp i32 %28 to double
  %30 = fsub double %24, %29
  %31 = call double @llvm.fabs.f64(double %30)
  br label %34

32:                                               ; preds = %12
  %33 = load double, double* @max, align 8
  br label %34

34:                                               ; preds = %32, %23
  %35 = phi double [ %31, %23 ], [ %33, %32 ]
  store double %35, double* @max, align 8
  br label %36

36:                                               ; preds = %34
  %37 = load i32, i32* %1, align 4
  %38 = add nsw i32 %37, 1
  store i32 %38, i32* %1, align 4
  br label %8

39:                                               ; preds = %8
  store i32 0, i32* %1, align 4
  br label %40

40:                                               ; preds = %67, %39
  %41 = load i32, i32* %1, align 4
  %42 = load i32, i32* @n, align 4
  %43 = icmp slt i32 %41, %42
  br i1 %43, label %44, label %70

44:                                               ; preds = %40
  %45 = load double, double* @ave, align 8
  %46 = load i32, i32* %1, align 4
  %47 = sext i32 %46 to i64
  %48 = getelementptr inbounds [100 x i32], [100 x i32]* @a, i64 0, i64 %47
  %49 = load i32, i32* %48, align 4
  %50 = sitofp i32 %49 to double
  %51 = fsub double %45, %50
  %52 = call double @llvm.fabs.f64(double %51)
  %53 = load double, double* @max, align 8
  %54 = fsub double %52, %53
  %55 = call double @llvm.fabs.f64(double %54)
  %56 = fcmp olt double %55, 0x3EB0C6F7A0B5ED8D
  br i1 %56, label %57, label %66

57:                                               ; preds = %44
  %58 = load i32, i32* %1, align 4
  %59 = sext i32 %58 to i64
  %60 = getelementptr inbounds [100 x i32], [100 x i32]* @a, i64 0, i64 %59
  %61 = load i32, i32* %60, align 4
  %62 = load i32, i32* %2, align 4
  %63 = add nsw i32 %62, 1
  store i32 %63, i32* %2, align 4
  %64 = sext i32 %62 to i64
  %65 = getelementptr inbounds [100 x i32], [100 x i32]* @b, i64 0, i64 %64
  store i32 %61, i32* %65, align 4
  br label %66

66:                                               ; preds = %57, %44
  br label %67

67:                                               ; preds = %66
  %68 = load i32, i32* %1, align 4
  %69 = add nsw i32 %68, 1
  store i32 %69, i32* %1, align 4
  br label %40

70:                                               ; preds = %40
  %71 = load i32, i32* %2, align 4
  call void @bubble(i32* getelementptr inbounds ([100 x i32], [100 x i32]* @b, i64 0, i64 0), i32 %71)
  store i32 0, i32* %1, align 4
  br label %72

72:                                               ; preds = %88, %70
  %73 = load i32, i32* %1, align 4
  %74 = load i32, i32* %2, align 4
  %75 = icmp slt i32 %73, %74
  br i1 %75, label %76, label %91

76:                                               ; preds = %72
  %77 = load i32, i32* %1, align 4
  %78 = sext i32 %77 to i64
  %79 = getelementptr inbounds [100 x i32], [100 x i32]* @b, i64 0, i64 %78
  %80 = load i32, i32* %79, align 4
  %81 = load i32, i32* %1, align 4
  %82 = load i32, i32* %2, align 4
  %83 = sub nsw i32 %82, 1
  %84 = icmp eq i32 %81, %83
  %85 = zext i1 %84 to i64
  %86 = select i1 %84, i32 10, i32 44
  %87 = call i32 (i8*, ...) @printf(i8* getelementptr inbounds ([5 x i8], [5 x i8]* @.str, i64 0, i64 0), i32 %80, i32 %86)
  br label %88

88:                                               ; preds = %76
  %89 = load i32, i32* %1, align 4
  %90 = add nsw i32 %89, 1
  store i32 %90, i32* %1, align 4
  br label %72

91:                                               ; preds = %72
  ret void
}

; Function Attrs: nounwind readnone speculatable willreturn
declare double @llvm.fabs.f64(double) #1

declare dso_local i32 @printf(i8*, ...) #2

; Function Attrs: noinline nounwind uwtable
define dso_local void @main() #0 {
  %1 = alloca i32, align 4
  %2 = call i32 (i8*, ...) @__isoc99_scanf(i8* getelementptr inbounds ([3 x i8], [3 x i8]* @.str.1, i64 0, i64 0), i32* @n)
  store i32 0, i32* %1, align 4
  br label %3

3:                                                ; preds = %18, %0
  %4 = load i32, i32* %1, align 4
  %5 = load i32, i32* @n, align 4
  %6 = icmp slt i32 %4, %5
  br i1 %6, label %7, label %21

7:                                                ; preds = %3
  %8 = load i32, i32* %1, align 4
  %9 = sext i32 %8 to i64
  %10 = getelementptr inbounds i32, i32* getelementptr inbounds ([100 x i32], [100 x i32]* @a, i64 0, i64 0), i64 %9
  %11 = call i32 (i8*, ...) @__isoc99_scanf(i8* getelementptr inbounds ([3 x i8], [3 x i8]* @.str.1, i64 0, i64 0), i32* %10)
  %12 = load i32, i32* %1, align 4
  %13 = sext i32 %12 to i64
  %14 = getelementptr inbounds [100 x i32], [100 x i32]* @a, i64 0, i64 %13
  %15 = load i32, i32* %14, align 4
  %16 = load i32, i32* @sum, align 4
  %17 = add nsw i32 %16, %15
  store i32 %17, i32* @sum, align 4
  br label %18

18:                                               ; preds = %7
  %19 = load i32, i32* %1, align 4
  %20 = add nsw i32 %19, 1
  store i32 %20, i32* %1, align 4
  br label %3

21:                                               ; preds = %3
  call void @fuc()
  ret void
}

declare dso_local i32 @__isoc99_scanf(i8*, ...) #2


!llvm.module.flags = !{!0}
!llvm.ident = !{!1}

!0 = !{i32 1, !"wchar_size", i32 4}
!1 = !{!"clang version 10.0.0-4ubuntu1 "}
